target datalayout = "e-m:e-p270:32:32-p271:32:32-p272:64:64-i64:64-i128:128-f80:128-n8:16:32:64-S128"
target triple = "x86_64-pc-linux-gnu"

%"class.icu_77::UObject" = type { ptr }
%"class.icu_77::UnicodeString" = type { %"class.icu_77::Replaceable", %"union.icu_77::UnicodeString::StackBufferOrFields" }
%"class.icu_77::Replaceable" = type { %"class.icu_77::UObject" }
%"union.icu_77::UnicodeString::StackBufferOrFields" = type { %struct.anon.0, [32 x i8] }
%struct.anon.0 = type { i16, i32, i32, ptr }
%"class.icu_77::RBBINode" = type { i32, ptr, ptr, ptr, ptr, i32, %"class.icu_77::UnicodeString", i32, i32, i8, i32, i8, i8, i8, ptr, ptr, ptr }

; Function Attrs: mustprogress uwtable
define void @_ZN6icu_7716RBBITableBuilder12calcNullableEPNS_8RBBINodeE(ptr noundef nonnull align 8 dereferenceable(52) %0, ptr noundef %1) #0 align 2 {
  %3 = alloca ptr, align 8
  %4 = alloca ptr, align 8
  store ptr %0, ptr %3, align 8, !tbaa !3
  store ptr %1, ptr %4, align 8, !tbaa !37
  %5 = load ptr, ptr %3, align 8
  %6 = load ptr, ptr %4, align 8, !tbaa !37
  %7 = icmp eq ptr %6, null
  br i1 %7, label %8, label %9

8:                                                ; preds = %2
  br label %107

9:                                                ; preds = %2
  %10 = load ptr, ptr %4, align 8, !tbaa !37
  %11 = getelementptr inbounds nuw %"class.icu_77::RBBINode", ptr %10, i32 0, i32 0
  %12 = load i32, ptr %11, align 8, !tbaa !58
  %13 = icmp eq i32 %12, 0
  br i1 %13, label %19, label %14

14:                                               ; preds = %9
  %15 = load ptr, ptr %4, align 8, !tbaa !37
  %16 = getelementptr inbounds nuw %"class.icu_77::RBBINode", ptr %15, i32 0, i32 0
  %17 = load i32, ptr %16, align 8, !tbaa !58
  %18 = icmp eq i32 %17, 6
  br i1 %18, label %19, label %22

19:                                               ; preds = %14, %9
  %20 = load ptr, ptr %4, align 8, !tbaa !37
  %21 = getelementptr inbounds nuw %"class.icu_77::RBBINode", ptr %20, i32 0, i32 9
  store i8 0, ptr %21, align 8, !tbaa !59
  br label %107

22:                                               ; preds = %14
  %23 = load ptr, ptr %4, align 8, !tbaa !37
  %24 = getelementptr inbounds nuw %"class.icu_77::RBBINode", ptr %23, i32 0, i32 0
  %25 = load i32, ptr %24, align 8, !tbaa !58
  %26 = icmp eq i32 %25, 4
  br i1 %26, label %32, label %27

27:                                               ; preds = %22
  %28 = load ptr, ptr %4, align 8, !tbaa !37
  %29 = getelementptr inbounds nuw %"class.icu_77::RBBINode", ptr %28, i32 0, i32 0
  %30 = load i32, ptr %29, align 8, !tbaa !58
  %31 = icmp eq i32 %30, 5
  br i1 %31, label %32, label %35

32:                                               ; preds = %27, %22
  %33 = load ptr, ptr %4, align 8, !tbaa !37
  %34 = getelementptr inbounds nuw %"class.icu_77::RBBINode", ptr %33, i32 0, i32 9
  store i8 1, ptr %34, align 8, !tbaa !59
  br label %107

35:                                               ; preds = %27
  %36 = load ptr, ptr %4, align 8, !tbaa !37
  %37 = getelementptr inbounds nuw %"class.icu_77::RBBINode", ptr %36, i32 0, i32 2
  %38 = load ptr, ptr %37, align 8, !tbaa !48
  call void @_ZN6icu_7716RBBITableBuilder12calcNullableEPNS_8RBBINodeE(ptr noundef nonnull align 8 dereferenceable(52) %5, ptr noundef %38)
  %39 = load ptr, ptr %4, align 8, !tbaa !37
  %40 = getelementptr inbounds nuw %"class.icu_77::RBBINode", ptr %39, i32 0, i32 3
  %41 = load ptr, ptr %40, align 8, !tbaa !53
  call void @_ZN6icu_7716RBBITableBuilder12calcNullableEPNS_8RBBINodeE(ptr noundef nonnull align 8 dereferenceable(52) %5, ptr noundef %41)
  %42 = load ptr, ptr %4, align 8, !tbaa !37
  %43 = getelementptr inbounds nuw %"class.icu_77::RBBINode", ptr %42, i32 0, i32 0
  %44 = load i32, ptr %43, align 8, !tbaa !58
  %45 = icmp eq i32 %44, 9
  br i1 %45, label %46, label %65

46:                                               ; preds = %35
  %47 = load ptr, ptr %4, align 8, !tbaa !37
  %48 = getelementptr inbounds nuw %"class.icu_77::RBBINode", ptr %47, i32 0, i32 2
  %49 = load ptr, ptr %48, align 8, !tbaa !48
  %50 = getelementptr inbounds nuw %"class.icu_77::RBBINode", ptr %49, i32 0, i32 9
  %51 = load i8, ptr %50, align 8, !tbaa !59
  %52 = icmp ne i8 %51, 0
  br i1 %52, label %60, label %53

53:                                               ; preds = %46
  %54 = load ptr, ptr %4, align 8, !tbaa !37
  %55 = getelementptr inbounds nuw %"class.icu_77::RBBINode", ptr %54, i32 0, i32 3
  %56 = load ptr, ptr %55, align 8, !tbaa !53
  %57 = getelementptr inbounds nuw %"class.icu_77::RBBINode", ptr %56, i32 0, i32 9
  %58 = load i8, ptr %57, align 8, !tbaa !59
  %59 = icmp ne i8 %58, 0
  br label %60

60:                                               ; preds = %53, %46
  %61 = phi i1 [ true, %46 ], [ %59, %53 ]
  %62 = zext i1 %61 to i8
  %63 = load ptr, ptr %4, align 8, !tbaa !37
  %64 = getelementptr inbounds nuw %"class.icu_77::RBBINode", ptr %63, i32 0, i32 9
  store i8 %62, ptr %64, align 8, !tbaa !59
  br label %107

65:                                               ; preds = %35
  %66 = load ptr, ptr %4, align 8, !tbaa !37
  %67 = getelementptr inbounds nuw %"class.icu_77::RBBINode", ptr %66, i32 0, i32 0
  %68 = load i32, ptr %67, align 8, !tbaa !58
  %69 = icmp eq i32 %68, 8
  br i1 %69, label %70, label %89

70:                                               ; preds = %65
  %71 = load ptr, ptr %4, align 8, !tbaa !37
  %72 = getelementptr inbounds nuw %"class.icu_77::RBBINode", ptr %71, i32 0, i32 2
  %73 = load ptr, ptr %72, align 8, !tbaa !48
  %74 = getelementptr inbounds nuw %"class.icu_77::RBBINode", ptr %73, i32 0, i32 9
  %75 = load i8, ptr %74, align 8, !tbaa !59
  %76 = icmp ne i8 %75, 0
  br i1 %76, label %77, label %84

77:                                               ; preds = %70
  %78 = load ptr, ptr %4, align 8, !tbaa !37
  %79 = getelementptr inbounds nuw %"class.icu_77::RBBINode", ptr %78, i32 0, i32 3
  %80 = load ptr, ptr %79, align 8, !tbaa !53
  %81 = getelementptr inbounds nuw %"class.icu_77::RBBINode", ptr %80, i32 0, i32 9
  %82 = load i8, ptr %81, align 8, !tbaa !59
  %83 = icmp ne i8 %82, 0
  br label %84

84:                                               ; preds = %77, %70
  %85 = phi i1 [ false, %70 ], [ %83, %77 ]
  %86 = zext i1 %85 to i8
  %87 = load ptr, ptr %4, align 8, !tbaa !37
  %88 = getelementptr inbounds nuw %"class.icu_77::RBBINode", ptr %87, i32 0, i32 9
  store i8 %86, ptr %88, align 8, !tbaa !59
  br label %106

89:                                               ; preds = %65
  %90 = load ptr, ptr %4, align 8, !tbaa !37
  %91 = getelementptr inbounds nuw %"class.icu_77::RBBINode", ptr %90, i32 0, i32 0
  %92 = load i32, ptr %91, align 8, !tbaa !58
  %93 = icmp eq i32 %92, 10
  br i1 %93, label %99, label %94

94:                                               ; preds = %89
  %95 = load ptr, ptr %4, align 8, !tbaa !37
  %96 = getelementptr inbounds nuw %"class.icu_77::RBBINode", ptr %95, i32 0, i32 0
  %97 = load i32, ptr %96, align 8, !tbaa !58
  %98 = icmp eq i32 %97, 12
  br i1 %98, label %99, label %102

99:                                               ; preds = %94, %89
  %100 = load ptr, ptr %4, align 8, !tbaa !37
  %101 = getelementptr inbounds nuw %"class.icu_77::RBBINode", ptr %100, i32 0, i32 9
  store i8 1, ptr %101, align 8, !tbaa !59
  br label %105

102:                                              ; preds = %94
  %103 = load ptr, ptr %4, align 8, !tbaa !37
  %104 = getelementptr inbounds nuw %"class.icu_77::RBBINode", ptr %103, i32 0, i32 9
  store i8 0, ptr %104, align 8, !tbaa !59
  br label %105

105:                                              ; preds = %102, %99
  br label %106

106:                                              ; preds = %105, %84
  br label %107

107:                                              ; preds = %8, %19, %32, %106, %60
  ret void
}