; Function Attrs: mustprogress nofree nosync nounwind memory(readwrite, inaccessiblemem: none) uwtable
define void @_ZN6icu_7716RBBITableBuilder12calcNullableEPNS_8RBBINodeE(ptr noundef nonnull align 8 dereferenceable(52) %0, ptr noundef %1) local_unnamed_addr #7 align 2 {
  %3 = icmp eq ptr %1, null
  br i1 %3, label %33, label %4

4:                                                ; preds = %2
  %5 = load i32, ptr %1, align 8, !tbaa !52
  %6 = icmp ult i32 %5, 7
  br i1 %6, label %switch.hole_check, label %7

7:                                                ; preds = %switch.hole_check, %4
  %8 = getelementptr inbounds nuw i8, ptr %1, i64 16
  %9 = load ptr, ptr %8, align 8, !tbaa !43
  tail call void @_ZN6icu_7716RBBITableBuilder12calcNullableEPNS_8RBBINodeE(ptr noundef nonnull align 8 dereferenceable(52) %0, ptr noundef %9)
  %10 = getelementptr inbounds nuw i8, ptr %1, i64 24
  %11 = load ptr, ptr %10, align 8, !tbaa !48
  tail call void @_ZN6icu_7716RBBITableBuilder12calcNullableEPNS_8RBBINodeE(ptr noundef nonnull align 8 dereferenceable(52) %0, ptr noundef %11)
  %12 = load i32, ptr %1, align 8, !tbaa !52
  switch i32 %12, label %31 [
    i32 9, label %13
    i32 8, label %22
    i32 10, label %.sink.split
    i32 12, label %.sink.split
  ]

13:                                               ; preds = %7
  %14 = load ptr, ptr %8, align 8, !tbaa !43
  %15 = getelementptr inbounds nuw i8, ptr %14, i64 120
  %16 = load i8, ptr %15, align 8, !tbaa !53
  %.not24 = icmp eq i8 %16, 0
  br i1 %.not24, label %17, label %.sink.split

17:                                               ; preds = %13
  %18 = load ptr, ptr %10, align 8, !tbaa !48
  %19 = getelementptr inbounds nuw i8, ptr %18, i64 120
  %20 = load i8, ptr %19, align 8, !tbaa !53
  %21 = icmp ne i8 %20, 0
  br label %.sink.split

22:                                               ; preds = %7
  %23 = load ptr, ptr %8, align 8, !tbaa !43
  %24 = getelementptr inbounds nuw i8, ptr %23, i64 120
  %25 = load i8, ptr %24, align 8, !tbaa !53
  %.not = icmp eq i8 %25, 0
  br i1 %.not, label %.sink.split, label %26

26:                                               ; preds = %22
  %27 = load ptr, ptr %10, align 8, !tbaa !48
  %28 = getelementptr inbounds nuw i8, ptr %27, i64 120
  %29 = load i8, ptr %28, align 8, !tbaa !53
  %30 = icmp ne i8 %29, 0
  br label %.sink.split

31:                                               ; preds = %7
  br label %.sink.split

switch.hole_check:                                ; preds = %4
  %switch.maskindex = trunc nuw i32 %5 to i8
  %switch.shifted = lshr i8 113, %switch.maskindex
  %switch.lobit = trunc i8 %switch.shifted to i1
  br i1 %switch.lobit, label %switch.lookup, label %7

switch.lookup:                                    ; preds = %switch.hole_check
  %switch.cast = trunc nuw i32 %5 to i7
  %switch.downshift = lshr i7 48, %switch.cast
  %switch.masked = trunc i7 %switch.downshift to i1
  br label %.sink.split

.sink.split:                                      ; preds = %switch.lookup, %7, %7, %22, %26, %13, %17, %31
  %.sink.shrunk = phi i1 [ false, %31 ], [ true, %13 ], [ %21, %17 ], [ false, %22 ], [ %30, %26 ], [ true, %7 ], [ true, %7 ], [ %switch.masked, %switch.lookup ]
  %.sink = zext i1 %.sink.shrunk to i8
  %32 = getelementptr inbounds nuw i8, ptr %1, i64 120
  store i8 %.sink, ptr %32, align 8, !tbaa !53
  br label %33

33:                                               ; preds = %.sink.split, %2
  ret void
}